target datalayout = "e-m:e-p270:32:32-p271:32:32-p272:64:64-i64:64-i128:128-f80:128-n8:16:32:64-S128"
target triple = "x86_64-pc-linux-gnu"

%struct.except_id_t = type { i64, i64 }
%struct._packet_info = type { ptr, ptr, i32, i32, %struct.nstime_t, %struct.nstime_t, %struct.nstime_t, i8, ptr, ptr, ptr, ptr, %struct._address, %struct._address, %struct._address, %struct._address, %struct._address, %struct._address, i32, ptr, i8, [3 x i8], %struct.anon, i32, i32, i32, i32, ptr, i8, ptr, ptr, i16, i16, i32, i32, i16, i32, i32, ptr, ptr, ptr, i8, i8, i16, i16, i16, i32, i16, i16, ptr, ptr, ptr, ptr, ptr, i32, i32 }
%struct.nstime_t = type { i64, i32 }
%struct._address = type { i32, i32, ptr, ptr }
%struct.anon = type { i8, [3 x i8] }
%struct._asn1_ctx_t = type { i32, i32, i8, ptr, ptr, ptr, ptr, ptr, %struct.anon.0, %struct.anon.3, %struct.anon.4, ptr }
%struct.anon.0 = type { i32, i8, i8, i8, ptr, ptr, i32, i32, ptr, ptr, ptr, %union.anon }
%union.anon = type { %struct.anon.1 }
%struct.anon.1 = type { ptr }
%struct.anon.3 = type { ptr, ptr, ptr }
%struct.anon.4 = type { i32, i8, ptr, i32, i32, ptr, ptr, ptr, %union.anon.5 }
%union.anon.5 = type { %struct.anon.6 }
%struct.anon.6 = type { ptr }
%struct.s1ap_private_data = type { ptr, i32, i32, i32, i32, i32, i8, ptr, ptr, ptr, i16, i8, i8, i32 }
%struct.except_stacknode = type { ptr, i32, %union.anon.8 }
%union.anon.8 = type { ptr }
%struct.except_catch = type { ptr, i64, %struct.except_t, [1 x %struct.__jmp_buf_tag] }
%struct.except_t = type { %struct.except_id_t, ptr, ptr }
%struct.__jmp_buf_tag = type { [8 x i64], i32, %struct.__sigset_t }
%struct.__sigset_t = type { [16 x i64] }

@proto_s1ap = internal global i32 0, align 4
@ett_s1ap_SourceeNB_ToTargeteNB_TransparentContainer = internal global i32 0, align 4
@dissect_s1ap_SourceeNB_ToTargeteNB_TransparentContainer.catch_spec = internal constant [1 x %struct.except_id_t] [%struct.except_id_t { i64 1, i64 0 }], align 16

; Function Attrs: null_pointer_is_valid sspstrong uwtable
define internal ptr @s1ap_get_private_data(ptr noundef %0) #0 {
  %2 = alloca ptr, align 8
  %3 = alloca ptr, align 8
  store ptr %0, ptr %2, align 8
  call void @llvm.lifetime.start.p0(i64 8, ptr %3) #8
  %4 = load ptr, ptr %2, align 8
  %5 = getelementptr inbounds nuw %struct._packet_info, ptr %4, i32 0, i32 51
  %6 = load ptr, ptr %5, align 8
  %7 = load ptr, ptr %2, align 8
  %8 = load i32, ptr @proto_s1ap, align 4
  %9 = call ptr @p_get_proto_data(ptr noundef %6, ptr noundef %7, i32 noundef %8, i32 noundef 0)
  store ptr %9, ptr %3, align 8
  %10 = load ptr, ptr %3, align 8
  %11 = icmp ne ptr %10, null
  br i1 %11, label %23, label %12

12:                                               ; preds = %1
  %13 = load ptr, ptr %2, align 8
  %14 = getelementptr inbounds nuw %struct._packet_info, ptr %13, i32 0, i32 51
  %15 = load ptr, ptr %14, align 8
  %16 = call noalias ptr @wmem_alloc0(ptr noundef %15, i64 noundef 64) #11
  store ptr %16, ptr %3, align 8
  %17 = load ptr, ptr %2, align 8
  %18 = getelementptr inbounds nuw %struct._packet_info, ptr %17, i32 0, i32 51
  %19 = load ptr, ptr %18, align 8
  %20 = load ptr, ptr %2, align 8
  %21 = load i32, ptr @proto_s1ap, align 4
  %22 = load ptr, ptr %3, align 8
  call void @p_add_proto_data(ptr noundef %19, ptr noundef %20, i32 noundef %21, i32 noundef 0, ptr noundef %22)
  br label %23

23:                                               ; preds = %12, %1
  %24 = load ptr, ptr %3, align 8
  call void @llvm.lifetime.end.p0(i64 8, ptr %3) #8
  ret ptr %24
}

; Function Attrs: null_pointer_is_valid sspstrong uwtable
define internal i32 @dissect_s1ap_SourceeNB_ToTargeteNB_TransparentContainer(ptr noundef %0, i32 noundef %1, ptr noundef %2, ptr noundef %3, i32 noundef %4) #0 {
  %6 = alloca ptr, align 8
  %7 = alloca i32, align 4
  %8 = alloca ptr, align 8
  %9 = alloca ptr, align 8
  %10 = alloca i32, align 4
  %11 = alloca ptr, align 8
  %12 = alloca i32, align 4
  %13 = alloca ptr, align 8
  %14 = alloca i32, align 4
  %15 = alloca %struct.except_stacknode, align 8
  %16 = alloca %struct.except_catch, align 8
  store ptr %0, ptr %6, align 8
  store i32 %1, ptr %7, align 4
  store ptr %2, ptr %8, align 8
  store ptr %3, ptr %9, align 8
  store i32 %4, ptr %10, align 4
  call void @llvm.lifetime.start.p0(i64 8, ptr %11) #8
  %17 = load ptr, ptr %8, align 8
  %18 = getelementptr inbounds nuw %struct._asn1_ctx_t, ptr %17, i32 0, i32 3
  %19 = load ptr, ptr %18, align 8
  %20 = call ptr @s1ap_get_private_data(ptr noundef %19)
  store ptr %20, ptr %11, align 8
  call void @llvm.lifetime.start.p0(i64 4, ptr %12) #8
  %21 = load ptr, ptr %11, align 8
  %22 = getelementptr inbounds nuw %struct.s1ap_private_data, ptr %21, i32 0, i32 12
  store i8 1, ptr %22, align 1
  %23 = load i32, ptr %7, align 4
  store volatile i32 %23, ptr %12, align 4
  call void @llvm.lifetime.start.p0(i64 8, ptr %13) #8
  call void @llvm.lifetime.start.p0(i64 4, ptr %14) #8
  store volatile i32 0, ptr %14, align 4
  call void @llvm.lifetime.start.p0(i64 24, ptr %15) #8
  call void @llvm.lifetime.start.p0(i64 248, ptr %16) #8
  call void @except_setup_try(ptr noundef %15, ptr noundef %16, ptr noundef @dissect_s1ap_SourceeNB_ToTargeteNB_TransparentContainer.catch_spec, i64 noundef 1)
  %24 = getelementptr inbounds nuw %struct.except_catch, ptr %16, i32 0, i32 3
  %25 = getelementptr inbounds [1 x %struct.__jmp_buf_tag], ptr %24, i64 0, i64 0
  %26 = call i32 @_setjmp(ptr noundef %25) #9
  %27 = icmp ne i32 %26, 0
  br i1 %27, label %28, label %30

28:                                               ; preds = %5
  %29 = getelementptr inbounds nuw %struct.except_catch, ptr %16, i32 0, i32 2
  store volatile ptr %29, ptr %13, align 8
  br label %31

30:                                               ; preds = %5
  store volatile ptr null, ptr %13, align 8
  br label %31

31:                                               ; preds = %30, %28
  %32 = load volatile i32, ptr %14, align 4
  %33 = and i32 %32, 1
  %34 = icmp ne i32 %33, 0
  br i1 %34, label %35, label %38

35:                                               ; preds = %31
  %36 = load volatile i32, ptr %14, align 4
  %37 = or i32 %36, 2
  store volatile i32 %37, ptr %14, align 4
  br label %38

38:                                               ; preds = %35, %31
  %39 = load volatile i32, ptr %14, align 4
  %40 = and i32 %39, -2
  store volatile i32 %40, ptr %14, align 4
  %41 = load volatile i32, ptr %14, align 4
  %42 = icmp eq i32 %41, 0
  br i1 %42, label %43, label %54

43:                                               ; preds = %38
  %44 = load volatile ptr, ptr %13, align 8
  %45 = icmp eq ptr %44, null
  br i1 %45, label %46, label %54

46:                                               ; preds = %43
  %47 = load ptr, ptr %6, align 8
  %48 = load volatile i32, ptr %12, align 4
  %49 = load ptr, ptr %8, align 8
  %50 = load ptr, ptr %9, align 8
  %51 = load i32, ptr %10, align 4
  %52 = load i32, ptr @ett_s1ap_SourceeNB_ToTargeteNB_TransparentContainer, align 4
  %53 = call i32 @dissect_per_sequence(ptr noundef %47, i32 noundef %48, ptr noundef %49, ptr noundef %50, i32 noundef %51, i32 noundef %52, ptr noundef @SourceeNB_ToTargeteNB_TransparentContainer_sequence)
  store i32 %53, ptr %7, align 4
  br label %54

54:                                               ; preds = %46, %43, %38
  %55 = load volatile i32, ptr %14, align 4
  %56 = icmp eq i32 %55, 0
  br i1 %56, label %57, label %77

57:                                               ; preds = %54
  %58 = load volatile ptr, ptr %13, align 8
  %59 = icmp ne ptr %58, null
  br i1 %59, label %60, label %77

60:                                               ; preds = %57
  %61 = load volatile i32, ptr %14, align 4
  %62 = or i32 %61, 1
  store volatile i32 %62, ptr %14, align 4
  %63 = icmp ne i32 %62, 0
  br i1 %63, label %64, label %77

64:                                               ; preds = %60
  %65 = load ptr, ptr %6, align 8
  %66 = load ptr, ptr %8, align 8
  %67 = getelementptr inbounds nuw %struct._asn1_ctx_t, ptr %66, i32 0, i32 3
  %68 = load ptr, ptr %67, align 8
  %69 = load ptr, ptr %9, align 8
  %70 = load volatile ptr, ptr %13, align 8
  %71 = getelementptr inbounds nuw %struct.except_t, ptr %70, i32 0, i32 0
  %72 = getelementptr inbounds nuw %struct.except_id_t, ptr %71, i32 0, i32 1
  %73 = load volatile i64, ptr %72, align 8
  %74 = load volatile ptr, ptr %13, align 8
  %75 = getelementptr inbounds nuw %struct.except_t, ptr %74, i32 0, i32 1
  %76 = load volatile ptr, ptr %75, align 8
  call void @show_exception(ptr noundef %65, ptr noundef %68, ptr noundef %69, i64 noundef %73, ptr noundef %76)
  br label %77

77:                                               ; preds = %64, %60, %57, %54
  %78 = load volatile i32, ptr %14, align 4
  %79 = and i32 %78, 1
  %80 = icmp ne i32 %79, 0
  br i1 %80, label %86, label %81

81:                                               ; preds = %77
  %82 = load volatile ptr, ptr %13, align 8
  %83 = icmp ne ptr %82, null
  br i1 %83, label %84, label %86

84:                                               ; preds = %81
  %85 = load volatile ptr, ptr %13, align 8
  call void @except_rethrow(ptr noundef %85) #10
  unreachable

86:                                               ; preds = %81, %77
  %87 = getelementptr inbounds nuw %struct.except_catch, ptr %16, i32 0, i32 2
  %88 = getelementptr inbounds nuw %struct.except_t, ptr %87, i32 0, i32 2
  %89 = load volatile ptr, ptr %88, align 8
  call void @except_free(ptr noundef %89)
  %90 = call ptr @except_pop()
  call void @llvm.lifetime.end.p0(i64 248, ptr %16) #8
  call void @llvm.lifetime.end.p0(i64 24, ptr %15) #8
  call void @llvm.lifetime.end.p0(i64 4, ptr %14) #8
  call void @llvm.lifetime.end.p0(i64 8, ptr %13) #8
  %91 = load volatile i32, ptr %12, align 4
  store i32 %91, ptr %7, align 4
  %92 = load i32, ptr %7, align 4
  call void @llvm.lifetime.end.p0(i64 4, ptr %12) #8
  call void @llvm.lifetime.end.p0(i64 8, ptr %11) #8
  ret i32 %92
}