; Function Attrs: null_pointer_is_valid sspstrong uwtable
define internal fastcc i32 @dissect_s1ap_SourceeNB_ToTargeteNB_TransparentContainer(ptr noundef %0, ptr noundef %1, ptr noundef %2, i32 noundef %3) unnamed_addr #0 {
  %5 = alloca i32, align 4
  %6 = alloca ptr, align 8
  %7 = alloca i32, align 4
  %8 = alloca %struct.except_stacknode, align 8
  %9 = alloca %struct.except_catch, align 8
  %10 = getelementptr inbounds nuw i8, ptr %1, i64 16
  %11 = load ptr, ptr %10, align 8
  %12 = getelementptr inbounds nuw i8, ptr %11, i64 408
  %13 = load ptr, ptr %12, align 8
  %14 = load i32, ptr @proto_s1ap, align 4
  %15 = call ptr @p_get_proto_data(ptr noundef %13, ptr noundef %11, i32 noundef %14, i32 noundef 0)
  %.not.i = icmp eq ptr %15, null
  br i1 %.not.i, label %16, label %s1ap_get_private_data.exit

16:                                               ; preds = %4
  %17 = load ptr, ptr %12, align 8
  %18 = call noalias dereferenceable_or_null(64) ptr @wmem_alloc0(ptr noundef %17, i64 noundef 64) #9
  %19 = load ptr, ptr %12, align 8
  %20 = load i32, ptr @proto_s1ap, align 4
  call void @p_add_proto_data(ptr noundef %19, ptr noundef %11, i32 noundef %20, i32 noundef 0, ptr noundef %18)
  br label %s1ap_get_private_data.exit

s1ap_get_private_data.exit:                       ; preds = %4, %16
  %.0.i = phi ptr [ %15, %4 ], [ %18, %16 ]
  call void @llvm.lifetime.start.p0(i64 4, ptr nonnull %5)
  %21 = getelementptr inbounds nuw i8, ptr %.0.i, i64 59
  store i8 1, ptr %21, align 1
  store volatile i32 0, ptr %5, align 4
  call void @llvm.lifetime.start.p0(i64 8, ptr nonnull %6)
  call void @llvm.lifetime.start.p0(i64 4, ptr nonnull %7)
  store volatile i32 0, ptr %7, align 4
  call void @llvm.lifetime.start.p0(i64 24, ptr nonnull %8) #8
  call void @llvm.lifetime.start.p0(i64 248, ptr nonnull %9) #8
  call void @except_setup_try(ptr noundef nonnull %8, ptr noundef nonnull %9, ptr noundef nonnull @dissect_s1ap_SourceeNB_ToTargeteNB_TransparentContainer.catch_spec, i64 noundef 1)
  %22 = getelementptr inbounds nuw i8, ptr %9, i64 48
  %23 = call i32 @_setjmp(ptr noundef nonnull %22) #10
  %.not = icmp eq i32 %23, 0
  %24 = getelementptr inbounds nuw i8, ptr %9, i64 16
  %.sink = select i1 %.not, ptr null, ptr %24
  store volatile ptr %.sink, ptr %6, align 8
  %.0..0..0..0. = load volatile i32, ptr %7, align 4
  %25 = and i32 %.0..0..0..0., 1
  %.not25 = icmp eq i32 %25, 0
  br i1 %.not25, label %28, label %26

26:                                               ; preds = %s1ap_get_private_data.exit
  %.0..0..0..0.1 = load volatile i32, ptr %7, align 4
  %27 = or i32 %.0..0..0..0.1, 2
  store volatile i32 %27, ptr %7, align 4
  br label %28

28:                                               ; preds = %26, %s1ap_get_private_data.exit
  %.0..0..0..0.2 = load volatile i32, ptr %7, align 4
  %29 = and i32 %.0..0..0..0.2, -2
  store volatile i32 %29, ptr %7, align 4
  %.0..0..0..0.3 = load volatile i32, ptr %7, align 4
  %30 = icmp eq i32 %.0..0..0..0.3, 0
  br i1 %30, label %31, label %36

31:                                               ; preds = %28
  %.0..0..0..0.7 = load volatile ptr, ptr %6, align 8
  %32 = icmp eq ptr %.0..0..0..0.7, null
  br i1 %32, label %33, label %36

33:                                               ; preds = %31
  %.0..0..0..0.13 = load volatile i32, ptr %5, align 4
  %34 = load i32, ptr @ett_s1ap_SourceeNB_ToTargeteNB_TransparentContainer, align 4
  %35 = call i32 @dissect_per_sequence(ptr noundef %0, i32 noundef %.0..0..0..0.13, ptr noundef %1, ptr noundef %2, i32 noundef %3, i32 noundef %34, ptr noundef nonnull @SourceeNB_ToTargeteNB_TransparentContainer_sequence)
  br label %36

36:                                               ; preds = %33, %31, %28
  %.0..0..0..0.4 = load volatile i32, ptr %7, align 4
  %37 = icmp eq i32 %.0..0..0..0.4, 0
  br i1 %37, label %38, label %46

38:                                               ; preds = %36
  %.0..0..0..0.8 = load volatile ptr, ptr %6, align 8
  %.not26 = icmp eq ptr %.0..0..0..0.8, null
  br i1 %.not26, label %46, label %39

39:                                               ; preds = %38
  %.0..0..0..0.5 = load volatile i32, ptr %7, align 4
  %40 = or i32 %.0..0..0..0.5, 1
  store volatile i32 %40, ptr %7, align 4
  %41 = load ptr, ptr %10, align 8
  %.0..0..0..0.9 = load volatile ptr, ptr %6, align 8
  %42 = getelementptr inbounds nuw i8, ptr %.0..0..0..0.9, i64 8
  %43 = load volatile i64, ptr %42, align 8
  %.0..0..0..0.10 = load volatile ptr, ptr %6, align 8
  %44 = getelementptr inbounds nuw i8, ptr %.0..0..0..0.10, i64 16
  %45 = load volatile ptr, ptr %44, align 8
  call void @show_exception(ptr noundef %0, ptr noundef %41, ptr noundef %2, i64 noundef %43, ptr noundef %45)
  br label %46

46:                                               ; preds = %39, %38, %36
  %.0..0..0..0.6 = load volatile i32, ptr %7, align 4
  %47 = and i32 %.0..0..0..0.6, 1
  %.not27 = icmp eq i32 %47, 0
  br i1 %.not27, label %48, label %50

48:                                               ; preds = %46
  %.0..0..0..0.11 = load volatile ptr, ptr %6, align 8
  %.not28 = icmp eq ptr %.0..0..0..0.11, null
  br i1 %.not28, label %50, label %49

49:                                               ; preds = %48
  %.0..0..0..0.12 = load volatile ptr, ptr %6, align 8
  call void @except_rethrow(ptr noundef %.0..0..0..0.12) #11
  unreachable

50:                                               ; preds = %48, %46
  %51 = getelementptr inbounds nuw i8, ptr %9, i64 40
  %52 = load volatile ptr, ptr %51, align 8
  call void @except_free(ptr noundef %52)
  %53 = call ptr @except_pop()
  call void @llvm.lifetime.end.p0(i64 248, ptr nonnull %9) #8
  call void @llvm.lifetime.end.p0(i64 24, ptr nonnull %8) #8
  call void @llvm.lifetime.end.p0(i64 4, ptr nonnull %7)
  call void @llvm.lifetime.end.p0(i64 8, ptr nonnull %6)
  %.0..0..0..0.14 = load volatile i32, ptr %5, align 4
  call void @llvm.lifetime.end.p0(i64 4, ptr nonnull %5)
  ret i32 %.0..0..0..0.14
}